target datalayout = "e-m:e-p270:32:32-p271:32:32-p272:64:64-i64:64-i128:128-f80:128-n8:16:32:64-S128"
target triple = "x86_64-pc-linux-gnu"

%struct.evp_aead_st = type { i8, i8, i8, i8, ptr, ptr, ptr, ptr, ptr, ptr, ptr }
%struct.evp_aead_ctx_st = type { ptr, ptr }

@.str = private unnamed_addr constant [124 x i8] c"generated/home/dtcxzyw/WorkSpace/Projects/compilers/llvm-opt-benchmark/bench/libquic/libquic/boringssl/crypto/cipher/aead.c\00", align 1

; Function Attrs: nounwind uwtable
define internal i32 @check_alias(ptr noundef %0, i64 noundef %1, ptr noundef %2) #0 {
  %4 = alloca i32, align 4
  %5 = alloca ptr, align 8
  %6 = alloca i64, align 8
  %7 = alloca ptr, align 8
  store ptr %0, ptr %5, align 8, !tbaa !18
  store i64 %1, ptr %6, align 8, !tbaa !20
  store ptr %2, ptr %7, align 8, !tbaa !18
  %8 = load ptr, ptr %7, align 8, !tbaa !18
  %9 = load ptr, ptr %5, align 8, !tbaa !18
  %10 = icmp ule ptr %8, %9
  br i1 %10, label %11, label %12

11:                                               ; preds = %3
  store i32 1, ptr %4, align 4
  br label %21

12:                                               ; preds = %3
  %13 = load ptr, ptr %5, align 8, !tbaa !18
  %14 = load i64, ptr %6, align 8, !tbaa !20
  %15 = getelementptr inbounds nuw i8, ptr %13, i64 %14
  %16 = load ptr, ptr %7, align 8, !tbaa !18
  %17 = icmp ule ptr %15, %16
  br i1 %17, label %18, label %19

18:                                               ; preds = %12
  store i32 1, ptr %4, align 4
  br label %21

19:                                               ; preds = %12
  br label %20

20:                                               ; preds = %19
  store i32 0, ptr %4, align 4
  br label %21

21:                                               ; preds = %20, %18, %11
  %22 = load i32, ptr %4, align 4
  ret i32 %22
}

; Function Attrs: nounwind uwtable
define hidden i32 @EVP_AEAD_CTX_seal(ptr noundef %0, ptr noundef %1, ptr noundef %2, i64 noundef %3, ptr noundef %4, i64 noundef %5, ptr noundef %6, i64 noundef %7, ptr noundef %8, i64 noundef %9) #0 {
  %11 = alloca i32, align 4
  %12 = alloca ptr, align 8
  %13 = alloca ptr, align 8
  %14 = alloca ptr, align 8
  %15 = alloca i64, align 8
  %16 = alloca ptr, align 8
  %17 = alloca i64, align 8
  %18 = alloca ptr, align 8
  %19 = alloca i64, align 8
  %20 = alloca ptr, align 8
  %21 = alloca i64, align 8
  %22 = alloca i64, align 8
  %23 = alloca i32, align 4
  store ptr %0, ptr %12, align 8, !tbaa !16
  store ptr %1, ptr %13, align 8, !tbaa !18
  store ptr %2, ptr %14, align 8, !tbaa !31
  store i64 %3, ptr %15, align 8, !tbaa !20
  store ptr %4, ptr %16, align 8, !tbaa !18
  store i64 %5, ptr %17, align 8, !tbaa !20
  store ptr %6, ptr %18, align 8, !tbaa !18
  store i64 %7, ptr %19, align 8, !tbaa !20
  store ptr %8, ptr %20, align 8, !tbaa !18
  store i64 %9, ptr %21, align 8, !tbaa !20
  call void @llvm.lifetime.start.p0(i64 8, ptr %22) #4
  %24 = load i64, ptr %19, align 8, !tbaa !20
  %25 = load ptr, ptr %12, align 8, !tbaa !16
  %26 = getelementptr inbounds nuw %struct.evp_aead_ctx_st, ptr %25, i32 0, i32 0
  %27 = load ptr, ptr %26, align 8, !tbaa !25
  %28 = getelementptr inbounds nuw %struct.evp_aead_st, ptr %27, i32 0, i32 2
  %29 = load i8, ptr %28, align 2, !tbaa !14
  %30 = zext i8 %29 to i64
  %31 = add i64 %24, %30
  store i64 %31, ptr %22, align 8, !tbaa !20
  %32 = load i64, ptr %22, align 8, !tbaa !20
  %33 = load i64, ptr %19, align 8, !tbaa !20
  %34 = icmp ult i64 %32, %33
  br i1 %34, label %35, label %36

35:                                               ; preds = %10
  call void @ERR_put_error(i32 noundef 30, i32 noundef 0, i32 noundef 117, ptr noundef @.str, i32 noundef 107)
  br label %63

36:                                               ; preds = %10
  %37 = load ptr, ptr %18, align 8, !tbaa !18
  %38 = load i64, ptr %19, align 8, !tbaa !20
  %39 = load ptr, ptr %13, align 8, !tbaa !18
  %40 = call i32 @check_alias(ptr noundef %37, i64 noundef %38, ptr noundef %39)
  %41 = icmp ne i32 %40, 0
  br i1 %41, label %43, label %42

42:                                               ; preds = %36
  call void @ERR_put_error(i32 noundef 30, i32 noundef 0, i32 noundef 115, ptr noundef @.str, i32 noundef 112)
  br label %63

43:                                               ; preds = %36
  %44 = load ptr, ptr %12, align 8, !tbaa !16
  %45 = getelementptr inbounds nuw %struct.evp_aead_ctx_st, ptr %44, i32 0, i32 0
  %46 = load ptr, ptr %45, align 8, !tbaa !25
  %47 = getelementptr inbounds nuw %struct.evp_aead_st, ptr %46, i32 0, i32 7
  %48 = load ptr, ptr %47, align 8, !tbaa !33
  %49 = load ptr, ptr %12, align 8, !tbaa !16
  %50 = load ptr, ptr %13, align 8, !tbaa !18
  %51 = load ptr, ptr %14, align 8, !tbaa !31
  %52 = load i64, ptr %15, align 8, !tbaa !20
  %53 = load ptr, ptr %16, align 8, !tbaa !18
  %54 = load i64, ptr %17, align 8, !tbaa !20
  %55 = load ptr, ptr %18, align 8, !tbaa !18
  %56 = load i64, ptr %19, align 8, !tbaa !20
  %57 = load ptr, ptr %20, align 8, !tbaa !18
  %58 = load i64, ptr %21, align 8, !tbaa !20
  %59 = call i32 %48(ptr noundef %49, ptr noundef %50, ptr noundef %51, i64 noundef %52, ptr noundef %53, i64 noundef %54, ptr noundef %55, i64 noundef %56, ptr noundef %57, i64 noundef %58)
  %60 = icmp ne i32 %59, 0
  br i1 %60, label %61, label %62

61:                                               ; preds = %43
  store i32 1, ptr %11, align 4
  store i32 1, ptr %23, align 4
  br label %67

62:                                               ; preds = %43
  br label %63

63:                                               ; preds = %62, %42, %35
  %64 = load ptr, ptr %13, align 8, !tbaa !18
  %65 = load i64, ptr %15, align 8, !tbaa !20
  call void @llvm.memset.p0.i64(ptr align 1 %64, i8 0, i64 %65, i1 false)
  %66 = load ptr, ptr %14, align 8, !tbaa !31
  store i64 0, ptr %66, align 8, !tbaa !20
  store i32 0, ptr %11, align 4
  store i32 1, ptr %23, align 4
  br label %67

67:                                               ; preds = %63, %61
  call void @llvm.lifetime.end.p0(i64 8, ptr %22) #4
  %68 = load i32, ptr %11, align 4
  ret i32 %68
}