; Function Attrs: nounwind uwtable
define hidden range(i32 0, 2) i32 @EVP_AEAD_CTX_seal(ptr noundef %0, ptr noundef %1, ptr noundef %2, i64 noundef %3, ptr noundef %4, i64 noundef %5, ptr noundef %6, i64 noundef %7, ptr noundef %8, i64 noundef %9) local_unnamed_addr #3 {
  %11 = load ptr, ptr %0, align 8, !tbaa !15
  %12 = getelementptr inbounds nuw i8, ptr %11, i64 2
  %13 = load i8, ptr %12, align 2, !tbaa !12
  %14 = zext i8 %13 to i64
  %15 = xor i64 %7, -1
  %16 = icmp ult i64 %15, %14
  br i1 %16, label %17, label %18

17:                                               ; preds = %10
  tail call void @ERR_put_error(i32 noundef 30, i32 noundef 0, i32 noundef 117, ptr noundef nonnull @.str, i32 noundef 107) #5
  br label %25

18:                                               ; preds = %10
  %.not.i = icmp ugt ptr %1, %6
  %19 = getelementptr inbounds nuw i8, ptr %6, i64 %7
  %.not7.i = icmp ugt ptr %19, %1
  %narrow.i.not = select i1 %.not.i, i1 %.not7.i, i1 false
  br i1 %narrow.i.not, label %20, label %21

20:                                               ; preds = %18
  tail call void @ERR_put_error(i32 noundef 30, i32 noundef 0, i32 noundef 115, ptr noundef nonnull @.str, i32 noundef 112) #5
  br label %25

21:                                               ; preds = %18
  %22 = getelementptr inbounds nuw i8, ptr %11, i64 32
  %23 = load ptr, ptr %22, align 8, !tbaa !20
  %24 = tail call i32 %23(ptr noundef nonnull %0, ptr noundef %1, ptr noundef %2, i64 noundef %3, ptr noundef %4, i64 noundef %5, ptr noundef %6, i64 noundef %7, ptr noundef %8, i64 noundef %9) #5
  %.not22 = icmp eq i32 %24, 0
  br i1 %.not22, label %25, label %26

25:                                               ; preds = %21, %20, %17
  tail call void @llvm.memset.p0.i64(ptr align 1 %1, i8 0, i64 %3, i1 false)
  store i64 0, ptr %2, align 8, !tbaa !21
  br label %26

26:                                               ; preds = %21, %25
  %.0 = phi i32 [ 0, %25 ], [ 1, %21 ]
  ret i32 %.0
}